target datalayout = "e-m:e-p270:32:32-p271:32:32-p272:64:64-i64:64-i128:128-f80:128-n8:16:32:64-S128"
target triple = "x86_64-pc-linux-gnu"

%struct._capture_file = type { ptr, i32, ptr, ptr, i8, i8, i8, i64, i16, i32, i32, i32, ptr, i32, i64, i32, i32, i32, i32, i8, i32, %struct.nstime_t, i32, ptr, ptr, ptr, i8, i8, i32, ptr, i8, i8, i8, i8, i8, i32, i32, i8, ptr, i32, i32, i8, %struct.packet_provider_data, i32, i32, %struct.epan_column_info, ptr, ptr, ptr, %struct.wtap_rec, %struct.Buffer, ptr, i64, i32 }
%struct.nstime_t = type { i64, i32 }
%struct.packet_provider_data = type { ptr, ptr, ptr, ptr, ptr, ptr }
%struct.epan_column_info = type { ptr, i32, ptr, ptr, ptr, %struct.col_expr_t, i8, ptr }
%struct.col_expr_t = type { ptr, ptr }
%struct.wtap_rec = type { i32, i32, i32, %struct.nstime_t, i32, %struct.nstime_t, i8, %union.anon, ptr, i8, %struct.Buffer, %struct.Buffer }
%union.anon = type { %struct.wtap_packet_header }
%struct.wtap_packet_header = type { i32, i32, i32, i32, %union.wtap_pseudo_header }
%union.wtap_pseudo_header = type { %struct.erf_mc_phdr }
%struct.erf_mc_phdr = type { %struct.erf_phdr, [16 x %struct.erf_ehdr], %union.anon.1 }
%struct.erf_phdr = type { i64, i8, i8, i16, i16, i16 }
%struct.erf_ehdr = type { i64 }
%union.anon.1 = type { i32 }
%struct.Buffer = type { ptr, i64, i64, i64 }
%struct._frame_data = type <{ i32, i32, i32, i32, i32, [4 x i8], i64, ptr, ptr, ptr, i8, i16, [5 x i8], %struct.nstime_t, %struct.nstime_t, i32, i32 }>
%struct.cbs_t = type { ptr, i64, ptr }

; Function Attrs: inlinehint nounwind null_pointer_is_valid sspstrong uwtable
define internal ptr @ws_buffer_start_ptr(ptr noundef %0) #17 {
  %2 = alloca ptr, align 8
  store ptr %0, ptr %2, align 8
  %3 = load ptr, ptr %2, align 8
  %4 = getelementptr inbounds nuw %struct.Buffer, ptr %3, i32 0, i32 0
  %5 = load ptr, ptr %4, align 8
  %6 = load ptr, ptr %2, align 8
  %7 = getelementptr inbounds nuw %struct.Buffer, ptr %6, i32 0, i32 2
  %8 = load i64, ptr %7, align 8
  %9 = getelementptr i8, ptr %5, i64 %8
  ret ptr %9
}

; Function Attrs: null_pointer_is_valid sspstrong uwtable
define hidden zeroext i1 @cf_read_record(ptr noundef %0, ptr noundef %1, ptr noundef %2) #1 {
  %4 = alloca i1, align 1
  %5 = alloca ptr, align 8
  %6 = alloca ptr, align 8
  %7 = alloca ptr, align 8
  %8 = alloca i32, align 4
  %9 = alloca ptr, align 8
  %10 = alloca i32, align 4
  store ptr %0, ptr %5, align 8
  store ptr %1, ptr %6, align 8
  store ptr %2, ptr %7, align 8
  call void @llvm.lifetime.start.p0(i64 4, ptr %8) #19
  call void @llvm.lifetime.start.p0(i64 8, ptr %9) #19
  %11 = load ptr, ptr %5, align 8
  %12 = getelementptr inbounds nuw %struct._capture_file, ptr %11, i32 0, i32 42
  %13 = getelementptr inbounds nuw %struct.packet_provider_data, ptr %12, i32 0, i32 0
  %14 = load ptr, ptr %13, align 8
  %15 = load ptr, ptr %6, align 8
  %16 = getelementptr inbounds nuw %struct._frame_data, ptr %15, i32 0, i32 6
  %17 = load i64, ptr %16, align 8
  %18 = load ptr, ptr %7, align 8
  %19 = call zeroext i1 @wtap_seek_read(ptr noundef %14, i64 noundef %17, ptr noundef %18, ptr noundef %8, ptr noundef %9)
  br i1 %19, label %26, label %20

20:                                               ; preds = %3
  %21 = load ptr, ptr %5, align 8
  %22 = getelementptr inbounds nuw %struct._capture_file, ptr %21, i32 0, i32 2
  %23 = load ptr, ptr %22, align 8
  %24 = load i32, ptr %8, align 4
  %25 = load ptr, ptr %9, align 8
  call void @report_cfile_read_failure(ptr noundef %23, i32 noundef %24, ptr noundef %25)
  store i1 false, ptr %4, align 1
  store i32 1, ptr %10, align 4
  br label %27

26:                                               ; preds = %3
  store i1 true, ptr %4, align 1
  store i32 1, ptr %10, align 4
  br label %27

27:                                               ; preds = %26, %20
  call void @llvm.lifetime.end.p0(i64 8, ptr %9) #19
  call void @llvm.lifetime.end.p0(i64 4, ptr %8) #19
  %28 = load i1, ptr %4, align 1
  ret i1 %28
}

; Function Attrs: null_pointer_is_valid sspstrong uwtable
define internal i32 @match_narrow_and_wide_case(ptr noundef %0, ptr noundef %1, ptr noundef %2, ptr noundef %3) #1 {
  %5 = alloca i32, align 4
  %6 = alloca ptr, align 8
  %7 = alloca ptr, align 8
  %8 = alloca ptr, align 8
  %9 = alloca ptr, align 8
  %10 = alloca ptr, align 8
  %11 = alloca ptr, align 8
  %12 = alloca i64, align 8
  %13 = alloca ptr, align 8
  %14 = alloca i32, align 4
  %15 = alloca i32, align 4
  %16 = alloca ptr, align 8
  %17 = alloca ptr, align 8
  %18 = alloca ptr, align 8
  %19 = alloca i32, align 4
  %20 = alloca i8, align 1
  %21 = alloca i64, align 8
  %22 = alloca i32, align 4
  store ptr %0, ptr %6, align 8
  store ptr %1, ptr %7, align 8
  store ptr %2, ptr %8, align 8
  store ptr %3, ptr %9, align 8
  call void @llvm.lifetime.start.p0(i64 8, ptr %10) #19
  %23 = load ptr, ptr %9, align 8
  store ptr %23, ptr %10, align 8
  call void @llvm.lifetime.start.p0(i64 8, ptr %11) #19
  %24 = load ptr, ptr %10, align 8
  %25 = getelementptr inbounds nuw %struct.cbs_t, ptr %24, i32 0, i32 0
  %26 = load ptr, ptr %25, align 8
  store ptr %26, ptr %11, align 8
  call void @llvm.lifetime.start.p0(i64 8, ptr %12) #19
  %27 = load ptr, ptr %10, align 8
  %28 = getelementptr inbounds nuw %struct.cbs_t, ptr %27, i32 0, i32 1
  %29 = load i64, ptr %28, align 8
  store i64 %29, ptr %12, align 8
  call void @llvm.lifetime.start.p0(i64 8, ptr %13) #19
  %30 = load ptr, ptr %10, align 8
  %31 = getelementptr inbounds nuw %struct.cbs_t, ptr %30, i32 0, i32 2
  %32 = load ptr, ptr %31, align 8
  store ptr %32, ptr %13, align 8
  call void @llvm.lifetime.start.p0(i64 4, ptr %14) #19
  call void @llvm.lifetime.start.p0(i64 4, ptr %15) #19
  call void @llvm.lifetime.start.p0(i64 8, ptr %16) #19
  call void @llvm.lifetime.start.p0(i64 8, ptr %17) #19
  call void @llvm.lifetime.start.p0(i64 8, ptr %18) #19
  call void @llvm.lifetime.start.p0(i64 4, ptr %19) #19
  call void @llvm.lifetime.start.p0(i64 1, ptr %20) #19
  call void @llvm.lifetime.start.p0(i64 8, ptr %21) #19
  store i64 0, ptr %21, align 8
  %33 = load ptr, ptr %6, align 8
  %34 = load ptr, ptr %7, align 8
  %35 = load ptr, ptr %8, align 8
  %36 = call zeroext i1 @cf_read_record(ptr noundef %33, ptr noundef %34, ptr noundef %35)
  br i1 %36, label %38, label %37

37:                                               ; preds = %4
  store i32 2, ptr %5, align 4
  store i32 1, ptr %22, align 4
  br label %208

38:                                               ; preds = %4
  br label %39

39:                                               ; preds = %38
  br label %40

40:                                               ; preds = %39
  br label %41

41:                                               ; preds = %40
  store i32 0, ptr %14, align 4
  %42 = load ptr, ptr %7, align 8
  %43 = getelementptr inbounds nuw %struct._frame_data, ptr %42, i32 0, i32 3
  %44 = load i32, ptr %43, align 4
  store i32 %44, ptr %15, align 4
  %45 = load ptr, ptr %8, align 8
  %46 = getelementptr inbounds nuw %struct.wtap_rec, ptr %45, i32 0, i32 11
  %47 = call ptr @ws_buffer_start_ptr(ptr noundef %46)
  store ptr %47, ptr %17, align 8
  %48 = load ptr, ptr %17, align 8
  %49 = load i32, ptr %15, align 4
  %50 = zext i32 %49 to i64
  %51 = getelementptr i8, ptr %48, i64 %50
  store ptr %51, ptr %18, align 8
  %52 = load ptr, ptr %17, align 8
  store ptr %52, ptr %16, align 8
  %53 = load ptr, ptr %6, align 8
  %54 = getelementptr inbounds nuw %struct._capture_file, ptr %53, i32 0, i32 36
  %55 = load i32, ptr %54, align 4
  %56 = icmp ne i32 %55, 0
  br i1 %56, label %62, label %57

57:                                               ; preds = %41
  %58 = load ptr, ptr %6, align 8
  %59 = getelementptr inbounds nuw %struct._capture_file, ptr %58, i32 0, i32 35
  %60 = load i32, ptr %59, align 8
  %61 = icmp ne i32 %60, 0
  br i1 %61, label %62, label %70

62:                                               ; preds = %57, %41
  %63 = load ptr, ptr %6, align 8
  %64 = getelementptr inbounds nuw %struct._capture_file, ptr %63, i32 0, i32 35
  %65 = load i32, ptr %64, align 8
  %66 = add i32 %65, 1
  %67 = load ptr, ptr %16, align 8
  %68 = zext i32 %66 to i64
  %69 = getelementptr i8, ptr %67, i64 %68
  store ptr %69, ptr %16, align 8
  br label %70

70:                                               ; preds = %62, %57
  br label %71

71:                                               ; preds = %202, %70
  %72 = load ptr, ptr %16, align 8
  %73 = load ptr, ptr %18, align 8
  %74 = icmp ult ptr %72, %73
  br i1 %74, label %75, label %205

75:                                               ; preds = %71
  %76 = load ptr, ptr %16, align 8
  %77 = load ptr, ptr %18, align 8
  %78 = load ptr, ptr %16, align 8
  %79 = ptrtoint ptr %77 to i64
  %80 = ptrtoint ptr %78 to i64
  %81 = sub i64 %79, %80
  %82 = load ptr, ptr %13, align 8
  %83 = call ptr @ws_mempbrk_exec(ptr noundef %76, i64 noundef %81, ptr noundef %82, ptr noundef %20)
  store ptr %83, ptr %16, align 8
  %84 = load ptr, ptr %16, align 8
  %85 = icmp eq ptr %84, null
  br i1 %85, label %86, label %87

86:                                               ; preds = %75
  br label %205

87:                                               ; preds = %75
  store i64 0, ptr %21, align 8
  store i32 0, ptr %19, align 4
  br label %88

88:                                               ; preds = %132, %87
  %89 = load ptr, ptr %16, align 8
  %90 = load i32, ptr %19, align 4
  %91 = zext i32 %90 to i64
  %92 = getelementptr i8, ptr %89, i64 %91
  %93 = load ptr, ptr %18, align 8
  %94 = icmp ult ptr %92, %93
  br i1 %94, label %95, label %135

95:                                               ; preds = %88
  %96 = load ptr, ptr %16, align 8
  %97 = load i32, ptr %19, align 4
  %98 = zext i32 %97 to i64
  %99 = getelementptr i8, ptr %96, i64 %98
  %100 = load i8, ptr %99, align 1
  %101 = call signext i8 @g_ascii_toupper(i8 noundef signext %100) #26
  store i8 %101, ptr %20, align 1
  %102 = load i8, ptr %20, align 1
  %103 = zext i8 %102 to i32
  %104 = load ptr, ptr %11, align 8
  %105 = load i64, ptr %21, align 8
  %106 = getelementptr i8, ptr %104, i64 %105
  %107 = load i8, ptr %106, align 1
  %108 = zext i8 %107 to i32
  %109 = icmp eq i32 %103, %108
  br i1 %109, label %110, label %130

110:                                              ; preds = %95
  %111 = load i64, ptr %21, align 8
  %112 = add i64 %111, 1
  store i64 %112, ptr %21, align 8
  %113 = load i64, ptr %21, align 8
  %114 = load i64, ptr %12, align 8
  %115 = icmp eq i64 %113, %114
  br i1 %115, label %116, label %129

116:                                              ; preds = %110
  store i32 1, ptr %14, align 4
  %117 = load ptr, ptr %16, align 8
  %118 = load ptr, ptr %17, align 8
  %119 = ptrtoint ptr %117 to i64
  %120 = ptrtoint ptr %118 to i64
  %121 = sub i64 %119, %120
  %122 = trunc i64 %121 to i32
  %123 = load ptr, ptr %6, align 8
  %124 = getelementptr inbounds nuw %struct._capture_file, ptr %123, i32 0, i32 35
  store i32 %122, ptr %124, align 8
  %125 = load i32, ptr %19, align 4
  %126 = add i32 %125, 1
  %127 = load ptr, ptr %6, align 8
  %128 = getelementptr inbounds nuw %struct._capture_file, ptr %127, i32 0, i32 36
  store i32 %126, ptr %128, align 4
  br label %206

129:                                              ; preds = %110
  br label %131

130:                                              ; preds = %95
  br label %135

131:                                              ; preds = %129
  br label %132

132:                                              ; preds = %131
  %133 = load i32, ptr %19, align 4
  %134 = add i32 %133, 1
  store i32 %134, ptr %19, align 4
  br label %88, !llvm.loop !27

135:                                              ; preds = %130, %88
  store i64 0, ptr %21, align 8
  store i32 0, ptr %19, align 4
  br label %136

136:                                              ; preds = %198, %135
  %137 = load ptr, ptr %16, align 8
  %138 = load i32, ptr %19, align 4
  %139 = zext i32 %138 to i64
  %140 = getelementptr i8, ptr %137, i64 %139
  %141 = load ptr, ptr %18, align 8
  %142 = icmp ult ptr %140, %141
  br i1 %142, label %143, label %201

143:                                              ; preds = %136
  %144 = load ptr, ptr %16, align 8
  %145 = load i32, ptr %19, align 4
  %146 = zext i32 %145 to i64
  %147 = getelementptr i8, ptr %144, i64 %146
  %148 = load i8, ptr %147, align 1
  %149 = call signext i8 @g_ascii_toupper(i8 noundef signext %148) #26
  store i8 %149, ptr %20, align 1
  %150 = load i8, ptr %20, align 1
  %151 = zext i8 %150 to i32
  %152 = load ptr, ptr %11, align 8
  %153 = load i64, ptr %21, align 8
  %154 = getelementptr i8, ptr %152, i64 %153
  %155 = load i8, ptr %154, align 1
  %156 = zext i8 %155 to i32
  %157 = icmp eq i32 %151, %156
  br i1 %157, label %158, label %196

158:                                              ; preds = %143
  %159 = load i64, ptr %21, align 8
  %160 = add i64 %159, 1
  store i64 %160, ptr %21, align 8
  %161 = load i64, ptr %21, align 8
  %162 = load i64, ptr %12, align 8
  %163 = icmp eq i64 %161, %162
  br i1 %163, label %164, label %177

164:                                              ; preds = %158
  store i32 1, ptr %14, align 4
  %165 = load ptr, ptr %16, align 8
  %166 = load ptr, ptr %17, align 8
  %167 = ptrtoint ptr %165 to i64
  %168 = ptrtoint ptr %166 to i64
  %169 = sub i64 %167, %168
  %170 = trunc i64 %169 to i32
  %171 = load ptr, ptr %6, align 8
  %172 = getelementptr inbounds nuw %struct._capture_file, ptr %171, i32 0, i32 35
  store i32 %170, ptr %172, align 8
  %173 = load i32, ptr %19, align 4
  %174 = add i32 %173, 1
  %175 = load ptr, ptr %6, align 8
  %176 = getelementptr inbounds nuw %struct._capture_file, ptr %175, i32 0, i32 36
  store i32 %174, ptr %176, align 4
  br label %206

177:                                              ; preds = %158
  %178 = load i32, ptr %19, align 4
  %179 = add i32 %178, 1
  store i32 %179, ptr %19, align 4
  %180 = load ptr, ptr %16, align 8
  %181 = load i32, ptr %19, align 4
  %182 = zext i32 %181 to i64
  %183 = getelementptr i8, ptr %180, i64 %182
  %184 = load ptr, ptr %18, align 8
  %185 = icmp uge ptr %183, %184
  br i1 %185, label %194, label %186

186:                                              ; preds = %177
  %187 = load ptr, ptr %16, align 8
  %188 = load i32, ptr %19, align 4
  %189 = zext i32 %188 to i64
  %190 = getelementptr i8, ptr %187, i64 %189
  %191 = load i8, ptr %190, align 1
  %192 = zext i8 %191 to i32
  %193 = icmp ne i32 %192, 0
  br i1 %193, label %194, label %195

194:                                              ; preds = %186, %177
  br label %201

195:                                              ; preds = %186
  br label %197

196:                                              ; preds = %143
  br label %201

197:                                              ; preds = %195
  br label %198

198:                                              ; preds = %197
  %199 = load i32, ptr %19, align 4
  %200 = add i32 %199, 1
  store i32 %200, ptr %19, align 4
  br label %136, !llvm.loop !28

201:                                              ; preds = %196, %194, %136
  br label %202

202:                                              ; preds = %201
  %203 = load ptr, ptr %16, align 8
  %204 = getelementptr i8, ptr %203, i32 1
  store ptr %204, ptr %16, align 8
  br label %71, !llvm.loop !29

205:                                              ; preds = %86, %71
  br label %206

206:                                              ; preds = %205, %164, %116
  %207 = load i32, ptr %14, align 4
  store i32 %207, ptr %5, align 4
  store i32 1, ptr %22, align 4
  br label %208

208:                                              ; preds = %206, %37
  call void @llvm.lifetime.end.p0(i64 8, ptr %21) #19
  call void @llvm.lifetime.end.p0(i64 1, ptr %20) #19
  call void @llvm.lifetime.end.p0(i64 4, ptr %19) #19
  call void @llvm.lifetime.end.p0(i64 8, ptr %18) #19
  call void @llvm.lifetime.end.p0(i64 8, ptr %17) #19
  call void @llvm.lifetime.end.p0(i64 8, ptr %16) #19
  call void @llvm.lifetime.end.p0(i64 4, ptr %15) #19
  call void @llvm.lifetime.end.p0(i64 4, ptr %14) #19
  call void @llvm.lifetime.end.p0(i64 8, ptr %13) #19
  call void @llvm.lifetime.end.p0(i64 8, ptr %12) #19
  call void @llvm.lifetime.end.p0(i64 8, ptr %11) #19
  call void @llvm.lifetime.end.p0(i64 8, ptr %10) #19
  %209 = load i32, ptr %5, align 4
  ret i32 %209
}