; Function Attrs: null_pointer_is_valid sspstrong uwtable
define internal range(i32 0, 3) i32 @match_narrow_and_wide_case(ptr noundef captures(none) %0, ptr noundef readonly captures(none) %1, ptr noundef %2, ptr noundef readonly captures(none) %3) #1 {
  %5 = alloca i32, align 4
  %6 = alloca ptr, align 8
  %7 = alloca i8, align 1
  %8 = load ptr, ptr %3, align 8
  %9 = getelementptr inbounds nuw i8, ptr %3, i64 8
  %10 = load i64, ptr %9, align 8
  %11 = getelementptr inbounds nuw i8, ptr %3, i64 16
  %12 = load ptr, ptr %11, align 8
  call void @llvm.lifetime.start.p0(i64 1, ptr nonnull %7) #23
  call void @llvm.lifetime.start.p0(i64 4, ptr nonnull %5) #23
  call void @llvm.lifetime.start.p0(i64 8, ptr nonnull %6) #23
  %13 = getelementptr inbounds nuw i8, ptr %0, i64 224
  %14 = load ptr, ptr %13, align 8
  %15 = getelementptr inbounds nuw i8, ptr %1, i64 24
  %16 = load i64, ptr %15, align 8
  %17 = call zeroext i1 @wtap_seek_read(ptr noundef %14, i64 noundef %16, ptr noundef %2, ptr noundef nonnull %5, ptr noundef nonnull %6)
  br i1 %17, label %22, label %cf_read_record.exit

cf_read_record.exit:                              ; preds = %4
  %18 = getelementptr inbounds nuw i8, ptr %0, i64 16
  %19 = load ptr, ptr %18, align 8
  %20 = load i32, ptr %5, align 4
  %21 = load ptr, ptr %6, align 8
  call void @report_cfile_read_failure(ptr noundef %19, i32 noundef %20, ptr noundef %21)
  call void @llvm.lifetime.end.p0(i64 8, ptr nonnull %6) #23
  call void @llvm.lifetime.end.p0(i64 4, ptr nonnull %5) #23
  br label %.loopexit

22:                                               ; preds = %4
  call void @llvm.lifetime.end.p0(i64 8, ptr nonnull %6) #23
  call void @llvm.lifetime.end.p0(i64 4, ptr nonnull %5) #23
  %23 = getelementptr inbounds nuw i8, ptr %1, i64 12
  %24 = load i32, ptr %23, align 4
  %25 = getelementptr inbounds nuw i8, ptr %2, i64 280
  %.val = load ptr, ptr %25, align 8
  %26 = getelementptr i8, ptr %2, i64 296
  %.val79 = load i64, ptr %26, align 8
  %27 = getelementptr i8, ptr %.val, i64 %.val79
  %28 = zext i32 %24 to i64
  %29 = getelementptr i8, ptr %27, i64 %28
  %30 = getelementptr inbounds nuw i8, ptr %0, i64 188
  %31 = load i32, ptr %30, align 4
  %.not = icmp eq i32 %31, 0
  %32 = getelementptr inbounds nuw i8, ptr %0, i64 184
  %33 = load i32, ptr %32, align 8
  %.not76 = icmp eq i32 %33, 0
  %or.cond111 = select i1 %.not, i1 %.not76, i1 false
  %34 = add i32 %33, 1
  %35 = zext i32 %34 to i64
  %.067.idx = select i1 %or.cond111, i64 0, i64 %35
  %.067 = getelementptr i8, ptr %27, i64 %.067.idx
  %36 = icmp ult ptr %.067, %29
  br i1 %36, label %.lr.ph96, label %.loopexit

.lr.ph96:                                         ; preds = %22
  %37 = ptrtoint ptr %29 to i64
  br label %38

38:                                               ; preds = %.lr.ph96, %._crit_edge90
  %.16894 = phi ptr [ %.067, %.lr.ph96 ], [ %90, %._crit_edge90 ]
  %39 = ptrtoint ptr %.16894 to i64
  %40 = sub i64 %37, %39
  %41 = call ptr @ws_mempbrk_exec(ptr noundef %.16894, i64 noundef %40, ptr noundef %12, ptr noundef nonnull %7)
  %42 = icmp eq ptr %41, null
  br i1 %42, label %.loopexit, label %.preheader

.preheader:                                       ; preds = %38
  %43 = icmp ult ptr %41, %29
  br i1 %43, label %.lr.ph, label %._crit_edge90

.lr.ph:                                           ; preds = %.preheader, %60
  %44 = phi ptr [ %62, %60 ], [ %41, %.preheader ]
  %.084 = phi i64 [ %51, %60 ], [ 0, %.preheader ]
  %45 = load i8, ptr %44, align 1
  %46 = call signext i8 @g_ascii_toupper(i8 noundef signext %45) #28
  store i8 %46, ptr %7, align 1
  %47 = getelementptr i8, ptr %8, i64 %.084
  %48 = load i8, ptr %47, align 1
  %49 = icmp eq i8 %46, %48
  br i1 %49, label %50, label %.lr.ph89.preheader

50:                                               ; preds = %.lr.ph
  %51 = add i64 %.084, 1
  %52 = icmp eq i64 %51, %10
  br i1 %52, label %53, label %60

53:                                               ; preds = %50
  %indvars105.le = trunc i64 %.084 to i32
  %54 = ptrtoint ptr %41 to i64
  %55 = ptrtoint ptr %27 to i64
  %56 = sub i64 %54, %55
  %57 = trunc i64 %56 to i32
  %58 = getelementptr inbounds nuw i8, ptr %0, i64 184
  store i32 %57, ptr %58, align 8
  %59 = add i32 %indvars105.le, 1
  store i32 %59, ptr %30, align 4
  br label %.loopexit

60:                                               ; preds = %50
  %61 = and i64 %51, 4294967295
  %62 = getelementptr i8, ptr %41, i64 %61
  %63 = icmp ult ptr %62, %29
  br i1 %63, label %.lr.ph, label %.lr.ph89.preheader, !llvm.loop !28

.lr.ph89.preheader:                               ; preds = %60, %.lr.ph
  br label %.lr.ph89

.lr.ph89:                                         ; preds = %.lr.ph89.preheader, %84
  %64 = phi ptr [ %88, %84 ], [ %41, %.lr.ph89.preheader ]
  %.187 = phi i64 [ %71, %84 ], [ 0, %.lr.ph89.preheader ]
  %.16486 = phi i32 [ %86, %84 ], [ 0, %.lr.ph89.preheader ]
  %65 = load i8, ptr %64, align 1
  %66 = call signext i8 @g_ascii_toupper(i8 noundef signext %65) #28
  store i8 %66, ptr %7, align 1
  %67 = getelementptr i8, ptr %8, i64 %.187
  %68 = load i8, ptr %67, align 1
  %69 = icmp eq i8 %66, %68
  br i1 %69, label %70, label %._crit_edge90

70:                                               ; preds = %.lr.ph89
  %71 = add i64 %.187, 1
  %72 = icmp eq i64 %71, %10
  br i1 %72, label %73, label %80

73:                                               ; preds = %70
  %74 = ptrtoint ptr %41 to i64
  %75 = ptrtoint ptr %27 to i64
  %76 = sub i64 %74, %75
  %77 = trunc i64 %76 to i32
  %78 = getelementptr inbounds nuw i8, ptr %0, i64 184
  store i32 %77, ptr %78, align 8
  %79 = or disjoint i32 %.16486, 1
  store i32 %79, ptr %30, align 4
  br label %.loopexit

80:                                               ; preds = %70
  %81 = or disjoint i32 %.16486, 1
  %82 = zext i32 %81 to i64
  %83 = getelementptr i8, ptr %41, i64 %82
  %.not77 = icmp ult ptr %83, %29
  br i1 %.not77, label %84, label %._crit_edge90

84:                                               ; preds = %80
  %85 = load i8, ptr %83, align 1
  %.not78 = icmp eq i8 %85, 0
  %86 = add i32 %.16486, 2
  %87 = zext i32 %86 to i64
  %88 = getelementptr i8, ptr %41, i64 %87
  %89 = icmp ult ptr %88, %29
  %or.cond = select i1 %.not78, i1 %89, i1 false
  br i1 %or.cond, label %.lr.ph89, label %._crit_edge90, !llvm.loop !29

._crit_edge90:                                    ; preds = %.lr.ph89, %80, %84, %.preheader
  %90 = getelementptr i8, ptr %41, i64 1
  %91 = icmp ult ptr %90, %29
  br i1 %91, label %38, label %.loopexit, !llvm.loop !30

.loopexit:                                        ; preds = %._crit_edge90, %38, %22, %cf_read_record.exit, %53, %73
  %.065 = phi i32 [ 2, %cf_read_record.exit ], [ 1, %53 ], [ 1, %73 ], [ 0, %22 ], [ 0, %38 ], [ 0, %._crit_edge90 ]
  call void @llvm.lifetime.end.p0(i64 1, ptr nonnull %7) #23
  ret i32 %.065
}